(dp1
S'1'
(dp2
S'nr'
p3
I1
sS'lastValid'
p4
(dp5
S'Cumulative'
p6
I00
sS'Global'
p7
I00
ssS'values'
p8
(dp9
g7
(lp10
F-4.2834499999999999e-08
aF0.00012020599999999999
aF0.00037494399999999999
aF0.00069606699999999997
aF-0.00016663800000000001
aF-1.30298e-05
aF0.00020151199999999999
aF1.7571399999999999e-05
aF-0.00076511600000000004
aF-6.4919900000000002e-05
aF-0.00028990199999999998
aF-0.00084544500000000001
aF-0.00063234000000000001
aF-3.6312500000000002e-05
aF0.00057775100000000005
aF0.00038299100000000001
aF0.00094001200000000005
aF0.00020804999999999999
aF0.000107198
aF0.00032289299999999999
aF9.4359700000000004e-05
aF-3.12622e-05
aF-9.8107600000000002e-05
aF-8.1188100000000003e-05
aF-5.2439499999999998e-05
aF-2.25552e-05
aF3.06999e-06
aF2.54862e-05
aF2.1109599999999999e-05
aF-5.5865699999999996e-06
aF-1.46173e-05
aF-2.6995199999999999e-05
aF-3.1041000000000003e-05
aF-2.8560200000000001e-05
aF0.00053420200000000001
aF0.000457338
aF0.00038953499999999999
aF0.000332672
aF0.00028358799999999998
aF0.000240287
aF0.00020234699999999999
aF0.00017030100000000001
aF0
asg6
(lp11
F-4.2834499999999999e-08
aF0.00012016299999999999
aF0.00049510600000000004
aF0.00119118
aF0.00102454
aF0.0010115199999999999
aF0.00121306
aF0.0012306699999999999
aF0.00046555400000000002
aF0.00040063799999999998
aF0.000110771
aF-0.00073469699999999998
aF-0.00136703
aF-0.00140332
aF-0.000825579
aF-0.00044259099999999999
aF0.00049742099999999995
aF0.00070545500000000001
aF0.000812647
aF0.0011355200000000001
aF0.00122988
aF0.0011986
aF0.0011004999999999999
aF0.00101924
aF0.00096691599999999996
aF0.00094439100000000005
aF0.00094756300000000001
aF0.00097307899999999996
aF0.00099420900000000002
aF0.00098860799999999998
aF0.000973963
aF0.00094690400000000004
aF0.00091582499999999999
aF0.00088722099999999999
aF0.0014214
aF0.00187872
aF0.0022682399999999999
aF0.0026009000000000002
aF0.0028845199999999998
aF0.0031248199999999999
aF0.0033271799999999999
aF0.0034974899999999998
aF0
assS'slaves'
p12
(lp13
sS'times'
p14
(lp15
F1.1961699999999999e-05
aF2.6260800000000001e-05
aF4.3321100000000001e-05
aF6.3793400000000005e-05
aF8.8155500000000007e-05
aF0.00011721400000000001
aF0.00015174700000000001
aF0.00019294399999999999
aF0.000242031
aF0.00029848
aF0.00036138000000000001
aF0.00043266799999999998
aF0.00051218100000000001
aF0.00060253599999999998
aF0.00068503399999999995
aF0.00074358200000000001
aF0.00078442900000000001
aF0.00082092999999999999
aF0.00085824299999999996
aF0.00089733200000000003
aF0.00093549099999999999
aF0.00097364999999999995
aF0.0010118099999999999
aF0.0010499699999999999
aF0.0010871500000000001
aF0.0011233700000000001
aF0.0011586700000000001
aF0.00119221
aF0.0012233400000000001
aF0.00125303
aF0.0012801399999999999
aF0.0013055600000000001
aF0.0013294400000000001
aF0.0013515300000000001
aF0.0013724099999999999
aF0.00139219
aF0.0014112899999999999
aF0.0014294399999999999
aF0.00144699
aF0.00146397
aF0.0014804200000000001
aF0.00149635
aF0.0015117900000000001
assS'3'
(dp16
g3
I3
sg4
(dp17
S'CO2'
p18
I00
sS'h'
I00
sS'p'
I00
sS'H2O'
p19
I00
sS'CH4'
p20
I00
sS'rho'
p21
I01
sS'O2'
p22
I00
ssg8
(dp23
g18
(lp24
F1
aF1
aF1
aF1
aF1
aF1
aF1
aF1
aF1
aF1
aF1
aF1
aF1
aF1
aF1
aF1
aF1
aF1
aF1
aF1
aF1
aF1
aF1
aF1
aF1
aF1
aF1
aF1
aF1
aF1
aF1
aF1
aF1
aF1
aF1
aF1
aF1
aF1
aF1
aF1
aF1
aF1
aF1
asS'h'
(lp25
F1
aF1
aF1
aF1
aF1
aF1
aF1
aF1
aF1
aF1
aF1
aF1
aF1
aF1
aF1
aF1
aF1
aF1
aF1
aF1
aF1
aF1
aF1
aF1
aF1
aF1
aF1
aF1
aF1
aF1
aF1
aF1
aF1
aF1
aF1
aF1
aF1
aF1
aF1
aF1
aF1
aF1
aF1
asS'p'
(lp26
F5
aF6
aF7
aF8
aF9
aF10
aF11
aF12
aF14
aF18
aF19
aF22
aF24
aF28
aF26
aF19
aF14
aF12
aF12
aF12
aF11
aF11
aF10
aF9
aF9
aF9
aF9
aF9
aF9
aF9
aF8
aF8
aF7
aF7
aF6
aF6
aF6
aF5
aF5
aF5
aF5
aF5
aF5
asg19
(lp27
F0
aF0
aF0
aF0
aF0
aF0
aF0
aF0
aF0
aF0
aF0
aF0
aF0
aF0
aF0
aF0
aF0
aF0
aF0
aF0
aF0
aF0
aF0
aF0
aF0
aF0
aF0
aF0
aF0
aF0
aF0
aF0
aF0
aF0
aF0
aF0
aF0
aF0
aF0
aF0
aF0
aF0
aF0
asg20
(lp28
F1
aF1
aF1
aF1
aF1
aF1
aF1
aF1
aF1
aF1
aF1
aF1
aF1
aF1
aF1
aF1
aF1
aF1
aF1
aF1
aF1
aF1
aF1
aF1
aF1
aF1
aF1
aF1
aF1
aF1
aF1
aF1
aF1
aF1
aF1
aF1
aF1
aF1
aF1
aF1
aF1
aF1
aF1
asg21
(lp29
F0
aF0
aF0
aF0
aF0
aF0
aF0
aF0
aF0
aF0
aF0
aF0
aF0
aF0
aF0
aF0
aF0
aF0
aF0
aF0
aF0
aF0
aF0
aF0
aF0
aF0
aF0
aF0
aF0
aF0
aF0
aF0
aF0
aF0
aF0
aF0
aF0
aF0
aF0
aF0
aF0
aF0
aF0
asg22
(lp30
F1
aF1
aF1
aF1
aF1
aF1
aF1
aF1
aF1
aF1
aF1
aF1
aF1
aF1
aF1
aF1
aF1
aF1
aF1
aF1
aF1
aF1
aF1
aF1
aF1
aF1
aF1
aF1
aF1
aF1
aF1
aF1
aF1
aF1
aF1
aF1
aF1
aF1
aF1
aF1
aF1
aF1
aF1
assg12
(lp31
sg14
(lp32
F1.1961699999999999e-05
aF2.6260800000000001e-05
aF4.3321100000000001e-05
aF6.3793400000000005e-05
aF8.8155500000000007e-05
aF0.00011721400000000001
aF0.00015174700000000001
aF0.00019294399999999999
aF0.000242031
aF0.00029848
aF0.00036138000000000001
aF0.00043266799999999998
aF0.00051218100000000001
aF0.00060253599999999998
aF0.00068503399999999995
aF0.00074358200000000001
aF0.00078442900000000001
aF0.00082092999999999999
aF0.00085824299999999996
aF0.00089733200000000003
aF0.00093549099999999999
aF0.00097364999999999995
aF0.0010118099999999999
aF0.0010499699999999999
aF0.0010871500000000001
aF0.0011233700000000001
aF0.0011586700000000001
aF0.00119221
aF0.0012233400000000001
aF0.00125303
aF0.0012801399999999999
aF0.0013055600000000001
aF0.0013294400000000001
aF0.0013515300000000001
aF0.0013724099999999999
aF0.00139219
aF0.0014112899999999999
aF0.0014294399999999999
aF0.00144699
aF0.00146397
aF0.0014804200000000001
aF0.00149635
aF0.0015117900000000001
assS'2'
(dp33
g3
I2
sg4
(dp34
S'p_final'
p35
I00
sS'CO2'
p36
I00
sS'CH4_final'
p37
I00
sS'h'
I00
sS'O2_iterations'
p38
I00
sS'H2O'
p39
I00
sS'p'
I00
sS'H2O_final'
p40
I00
sS'CH4_iterations'
p41
I00
sS'rho_final'
p42
I01
sS'rho_iterations'
p43
I01
sS'h_iterations'
p44
I00
sS'CH4'
p45
I00
sS'H2O_iterations'
p46
I00
sS'rho'
p47
I01
sS'p_iterations'
p48
I00
sS'CO2_iterations'
p49
I00
sS'h_final'
p50
I00
sS'CO2_final'
p51
I00
sS'O2'
p52
I00
sS'O2_final'
p53
I00
ssg8
(dp54
g35
(lp55
F4.43225e-07
aF3.1071200000000001e-07
aF2.54868e-07
aF2.5708399999999997e-07
aF2.8245100000000002e-07
aF3.7910499999999998e-07
aF4.9751799999999997e-07
aF5.6855099999999997e-07
aF9.8912199999999995e-07
aF4.1226099999999999e-07
aF8.8698800000000003e-07
aF6.7814700000000004e-07
aF7.9583600000000001e-07
aF6.6489500000000005e-07
aF5.7861199999999997e-07
aF7.2188299999999998e-07
aF8.6518699999999995e-07
aF7.1661500000000004e-07
aF5.2867099999999996e-07
aF5.4754200000000005e-07
aF5.5491099999999996e-07
aF2.96606e-07
aF4.9661999999999996e-07
aF9.4809000000000001e-07
aF8.5458899999999995e-07
aF6.37464e-07
aF7.7947700000000001e-07
aF7.93895e-07
aF6.1575900000000003e-07
aF3.79614e-07
aF5.7100000000000002e-07
aF2.9853499999999999e-07
aF7.0890999999999996e-07
aF3.2589299999999999e-07
aF7.0652499999999998e-07
aF3.99853e-07
aF2.50829e-07
aF8.6307799999999997e-07
aF5.6981999999999995e-07
aF3.7285600000000001e-07
aF2.4612199999999999e-07
aF1.6413500000000001e-07
aF1.6413500000000001e-07
asg36
(lp56
F1
aF0.158552
aF0.092886300000000005
aF0.069333199999999998
aF0.056780299999999999
aF0.049354099999999998
aF0.044284700000000003
aF0.040938099999999998
aF0.038450100000000001
aF0.035347799999999999
aF0.031986199999999999
aF0.029892599999999998
aF0.0277827
aF0.026480500000000001
aF0.020538299999999999
aF0.0128673
aF0.0082962399999999999
aF0.0069026900000000004
aF0.00681761
aF0.0068798799999999997
aF0.0064585299999999997
aF0.0062045700000000004
aF0.0059737100000000001
aF0.0057544500000000004
aF0.0054063899999999996
aF0.0050841599999999999
aF0.0047917599999999999
aF0.0044123799999999996
aF0.0039786099999999996
aF0.00369272
aF0.0032927999999999998
aF0.0030188699999999999
aF0.0027824799999999999
aF0.0025265000000000001
aF0.00234884
aF0.0021907699999999999
aF0.0020854599999999999
aF0.00195532
aF0.0018672000000000001
aF0.0017855799999999999
aF0.0017093
aF0.00163788
aF0.00163788
asg42
(lp57
F0
aF0
aF0
aF0
aF0
aF0
aF0
aF0
aF0
aF0
aF0
aF0
aF0
aF0
aF0
aF0
aF0
aF0
aF0
aF0
aF0
aF0
aF0
aF0
aF0
aF0
aF0
aF0
aF0
aF0
aF0
aF0
aF0
aF0
aF0
aF0
aF0
aF0
aF0
aF0
aF0
aF0
aF0
asg37
(lp58
F9.2586000000000005e-11
aF7.8834199999999995e-11
aF2.1029599999999999e-07
aF4.5055799999999998e-07
aF4.5488400000000001e-07
aF5.0138300000000004e-07
aF4.6092900000000001e-07
aF3.3532000000000001e-07
aF2.72633e-07
aF6.6344299999999999e-07
aF7.1351299999999996e-07
aF7.9959799999999998e-07
aF7.4067699999999996e-07
aF6.3194100000000001e-07
aF1.4947700000000001e-07
aF1.50871e-08
aF2.2221099999999999e-09
aF3.2572899999999998e-08
aF5.7042799999999999e-08
aF3.7932099999999997e-08
aF2.2525799999999998e-08
aF1.51183e-08
aF7.1100100000000003e-09
aF2.2684700000000001e-09
aF1.5709e-09
aF9.7259999999999993e-10
aF1.42809e-09
aF1.5847499999999999e-09
aF2.24633e-09
aF3.23699e-09
aF2.73795e-09
aF3.1337300000000001e-09
aF3.11467e-09
aF2.84681e-09
aF2.7082299999999999e-09
aF2.3127700000000001e-09
aF2.0559200000000001e-09
aF1.53524e-09
aF1.3437300000000001e-09
aF1.06233e-09
aF8.4448199999999998e-10
aF6.7304500000000003e-10
aF6.7304500000000003e-10
asS'h'
(lp59
F1
aF0.97028899999999996
aF0.99962799999999996
aF0.50958999999999999
aF0.28552899999999998
aF0.160522
aF0.149724
aF0.106119
aF0.058820400000000002
aF0.057475800000000001
aF0.085888800000000001
aF0.107376
aF0.118864
aF0.110142
aF0.070368799999999995
aF0.028156400000000002
aF0.022265699999999999
aF0.19677800000000001
aF0.12948100000000001
aF0.097996
aF0.062254900000000002
aF0.0395859
aF0.023741000000000002
aF0.0131191
aF0.0075192200000000001
aF0.0081865199999999992
aF0.0088591
aF0.0091790099999999996
aF0.0115172
aF0.015684300000000002
aF0.016267400000000001
aF0.018998899999999999
aF0.019535899999999998
aF0.018546
aF0.018461999999999999
aF0.017252900000000002
aF0.0159773
aF0.0136239
aF0.0122583
aF0.010616
aF0.0090811799999999995
aF0.0078296800000000003
aF0.0078296800000000003
asg38
(lp60
F1
aF1
aF1
aF1
aF1
aF1
aF1
aF1
aF1
aF1
aF1
aF1
aF1
aF1
aF1
aF1
aF1
aF1
aF1
aF1
aF1
aF1
aF1
aF1
aF1
aF1
aF1
aF1
aF1
aF1
aF1
aF1
aF1
aF1
aF1
aF1
aF1
aF1
aF1
aF1
aF1
aF1
aF1
asg43
(lp61
F0
aF0
aF0
aF0
aF0
aF0
aF0
aF0
aF0
aF0
aF0
aF0
aF0
aF0
aF0
aF0
aF0
aF0
aF0
aF0
aF0
aF0
aF0
aF0
aF0
aF0
aF0
aF0
aF0
aF0
aF0
aF0
aF0
aF0
aF0
aF0
aF0
aF0
aF0
aF0
aF0
aF0
aF0
asg52
(lp62
F1
aF0.360037
aF0.23413
aF0.181921
aF0.15229300000000001
aF0.134321
aF0.121783
aF0.113316
aF0.107005
aF0.099135100000000004
aF0.090368100000000007
aF0.084873299999999999
aF0.079324599999999995
aF0.075731999999999994
aF0.0594195
aF0.037866700000000003
aF0.024634799999999998
aF0.0200684
aF0.019937900000000001
aF0.020291900000000002
aF0.019164299999999999
aF0.018414199999999999
aF0.017789099999999999
aF0.0171924
aF0.016193900000000001
aF0.015214800000000001
aF0.0143289
aF0.0131854
aF0.0118418
aF0.0109196
aF0.0097250400000000008
aF0.0088399299999999993
aF0.0081205500000000007
aF0.0073497299999999996
aF0.0067883099999999997
aF0.0063136800000000003
aF0.0059906200000000003
aF0.0056115699999999998
aF0.00533462
aF0.0050905799999999999
aF0.0048598599999999997
aF0.0046417200000000002
aF0.0046417200000000002
asg41
(lp63
F1
aF1
aF1
aF1
aF1
aF1
aF1
aF1
aF1
aF1
aF1
aF1
aF1
aF1
aF1
aF1
aF1
aF1
aF1
aF1
aF1
aF1
aF1
aF1
aF1
aF1
aF1
aF1
aF1
aF1
aF1
aF1
aF1
aF1
aF1
aF1
aF1
aF1
aF1
aF1
aF1
aF1
aF1
asS'p'
(lp64
F1
aF0.99947900000000001
aF0.52024599999999999
aF0.29667199999999999
aF0.15357899999999999
aF0.127918
aF0.102724
aF0.094610200000000005
aF0.099582100000000007
aF0.14321200000000001
aF0.20891299999999999
aF0.37429600000000002
aF0.34406500000000001
aF0.3876
aF0.25978600000000002
aF0.36701499999999998
aF0.80382699999999996
aF0.25145099999999998
aF0.12770999999999999
aF0.089314500000000005
aF0.049756700000000001
aF0.0280948
aF0.014655
aF0.0076768699999999997
aF0.011557700000000001
aF0.0129785
aF0.013344200000000001
aF0.019310399999999998
aF0.026285900000000001
aF0.023371300000000001
aF0.027038400000000001
aF0.024561300000000001
aF0.022132599999999999
aF0.021223499999999999
aF0.019458
aF0.017487699999999998
aF0.0151063
aF0.0132356
aF0.0113828
aF0.0096858399999999994
aF0.0082662699999999992
aF0.0071393200000000002
aF0.0071393200000000002
asg39
(lp65
F0
aF0
aF0
aF0
aF0
aF0
aF0
aF0
aF0
aF0
aF0
aF0
aF0
aF0
aF0
aF0
aF0
aF0
aF0
aF0
aF0
aF0
aF0
aF0
aF0
aF0
aF0
aF0
aF0
aF0
aF0
aF0
aF0
aF0
aF0
aF0
aF0
aF0
aF0
aF0
aF0
aF0
aF0
asg44
(lp66
F1
aF1
aF1
aF1
aF1
aF1
aF1
aF1
aF1
aF1
aF1
aF1
aF1
aF1
aF1
aF1
aF1
aF1
aF1
aF1
aF1
aF1
aF1
aF1
aF1
aF1
aF1
aF1
aF1
aF1
aF1
aF1
aF1
aF1
aF1
aF1
aF1
aF1
aF1
aF1
aF1
aF1
aF1
asg45
(lp67
F1
aF0.158552
aF0.092886300000000005
aF0.069333199999999998
aF0.056780299999999999
aF0.049354099999999998
aF0.044284700000000003
aF0.040938099999999998
aF0.038450100000000001
aF0.035347799999999999
aF0.031986199999999999
aF0.029892599999999998
aF0.0277827
aF0.026480500000000001
aF0.020538299999999999
aF0.0128673
aF0.0082962399999999999
aF0.0069026900000000004
aF0.00681761
aF0.0068798799999999997
aF0.0064585299999999997
aF0.0062045700000000004
aF0.0059737100000000001
aF0.0057544500000000004
aF0.0054063899999999996
aF0.0050841599999999999
aF0.0047917599999999999
aF0.0044123799999999996
aF0.0039786099999999996
aF0.00369272
aF0.0032927999999999998
aF0.0030188699999999999
aF0.0027824799999999999
aF0.0025265000000000001
aF0.00234884
aF0.0021907699999999999
aF0.0020854599999999999
aF0.00195532
aF0.0018672000000000001
aF0.0017855799999999999
aF0.0017093
aF0.00163788
aF0.00163788
asg53
(lp68
F3.4842300000000002e-11
aF1.93976e-11
aF6.5895799999999999e-08
aF1.9389900000000001e-07
aF3.1997199999999997e-07
aF4.43438e-07
aF4.9864999999999998e-07
aF3.78584e-07
aF1.7632400000000001e-07
aF5.3125100000000002e-07
aF9.3227699999999995e-07
aF3.7141100000000002e-11
aF6.7552899999999996e-11
aF6.4466099999999996e-11
aF3.0259400000000002e-07
aF2.5811799999999999e-08
aF1.31433e-08
aF1.3540400000000001e-07
aF2.03629e-07
aF2.75849e-07
aF2.5221200000000001e-07
aF2.7576799999999998e-07
aF1.9775100000000001e-07
aF8.4380200000000003e-08
aF3.8691300000000002e-08
aF7.2199400000000005e-08
aF9.7601599999999994e-08
aF1.09606e-07
aF2.0447700000000001e-07
aF3.61402e-07
aF2.7589999999999998e-07
aF3.6450800000000002e-07
aF3.0532799999999999e-07
aF2.3868299999999999e-07
aF2.2439499999999999e-07
aF1.89295e-07
aF1.5664899999999999e-07
aF1.45474e-07
aF1.49839e-07
aF1.70458e-07
aF1.7163499999999999e-07
aF1.7709999999999999e-07
aF1.7709999999999999e-07
asg47
(lp69
F0
aF0
aF0
aF0
aF0
aF0
aF0
aF0
aF0
aF0
aF0
aF0
aF0
aF0
aF0
aF0
aF0
aF0
aF0
aF0
aF0
aF0
aF0
aF0
aF0
aF0
aF0
aF0
aF0
aF0
aF0
aF0
aF0
aF0
aF0
aF0
aF0
aF0
aF0
aF0
aF0
aF0
aF0
asg48
(lp70
F5
aF6
aF7
aF8
aF9
aF10
aF11
aF12
aF14
aF18
aF19
aF22
aF24
aF28
aF26
aF19
aF14
aF12
aF12
aF12
aF11
aF11
aF10
aF9
aF9
aF9
aF9
aF9
aF9
aF9
aF8
aF8
aF7
aF7
aF6
aF6
aF6
aF5
aF5
aF5
aF5
aF5
aF5
asg49
(lp71
F1
aF1
aF1
aF1
aF1
aF1
aF1
aF1
aF1
aF1
aF1
aF1
aF1
aF1
aF1
aF1
aF1
aF1
aF1
aF1
aF1
aF1
aF1
aF1
aF1
aF1
aF1
aF1
aF1
aF1
aF1
aF1
aF1
aF1
aF1
aF1
aF1
aF1
aF1
aF1
aF1
aF1
aF1
asg50
(lp72
F1.6366600000000001e-10
aF4.3631299999999999e-10
aF3.7266e-07
aF1.45336e-12
aF5.9308699999999997e-12
aF1.13425e-11
aF1.38293e-11
aF1.0892100000000001e-10
aF1.06477e-10
aF9.4037800000000002e-11
aF4.0600800000000001e-10
aF5.7370399999999999e-09
aF1.41971e-08
aF1.62029e-07
aF1.89197e-07
aF5.5008300000000002e-08
aF1.8553200000000002e-08
aF2.63132e-07
aF2.6465700000000001e-07
aF1.4960199999999999e-07
aF5.6244600000000003e-08
aF4.2930500000000002e-08
aF2.93411e-08
aF2.1876399999999999e-08
aF1.5297499999999999e-08
aF1.57811e-08
aF1.6508699999999999e-08
aF1.5880099999999999e-08
aF1.59451e-08
aF2.05269e-08
aF1.5985000000000001e-08
aF1.9824899999999998e-08
aF1.8234899999999999e-08
aF1.48994e-08
aF1.5160199999999999e-08
aF1.40418e-08
aF1.36116e-08
aF1.06784e-08
aF9.8445100000000008e-09
aF8.2137000000000003e-09
aF6.8072600000000003e-09
aF5.6199499999999998e-09
aF5.6199499999999998e-09
asg51
(lp73
F9.2585899999999999e-11
aF7.8834199999999995e-11
aF2.1029599999999999e-07
aF4.5055799999999998e-07
aF4.5488400000000001e-07
aF5.0138300000000004e-07
aF4.6092900000000001e-07
aF3.3532000000000001e-07
aF2.72633e-07
aF6.6344299999999999e-07
aF7.1351299999999996e-07
aF7.9959799999999998e-07
aF7.4067699999999996e-07
aF6.3194100000000001e-07
aF1.4947700000000001e-07
aF1.50871e-08
aF2.2221099999999999e-09
aF3.2572899999999998e-08
aF5.7042799999999999e-08
aF3.7932099999999997e-08
aF2.2525799999999998e-08
aF1.51183e-08
aF7.1100100000000003e-09
aF2.2684700000000001e-09
aF1.5709e-09
aF9.7259999999999993e-10
aF1.42809e-09
aF1.5847499999999999e-09
aF2.24633e-09
aF3.23699e-09
aF2.73795e-09
aF3.1337300000000001e-09
aF3.11467e-09
aF2.84681e-09
aF2.7082299999999999e-09
aF2.3127700000000001e-09
aF2.0559200000000001e-09
aF1.53524e-09
aF1.3437300000000001e-09
aF1.06233e-09
aF8.4448199999999998e-10
aF6.7304500000000003e-10
aF6.7304500000000003e-10
asg40
(lp74
F0
aF0
aF0
aF0
aF0
aF0
aF0
aF0
aF0
aF0
aF0
aF0
aF0
aF0
aF0
aF0
aF0
aF0
aF0
aF0
aF0
aF0
aF0
aF0
aF0
aF0
aF0
aF0
aF0
aF0
aF0
aF0
aF0
aF0
aF0
aF0
aF0
aF0
aF0
aF0
aF0
aF0
aF0
asg46
(lp75
F0
aF0
aF0
aF0
aF0
aF0
aF0
aF0
aF0
aF0
aF0
aF0
aF0
aF0
aF0
aF0
aF0
aF0
aF0
aF0
aF0
aF0
aF0
aF0
aF0
aF0
aF0
aF0
aF0
aF0
aF0
aF0
aF0
aF0
aF0
aF0
aF0
aF0
aF0
aF0
aF0
aF0
aF0
assg12
(lp76
sg14
(lp77
F1.1961699999999999e-05
aF2.6260800000000001e-05
aF4.3321100000000001e-05
aF6.3793400000000005e-05
aF8.8155500000000007e-05
aF0.00011721400000000001
aF0.00015174700000000001
aF0.00019294399999999999
aF0.000242031
aF0.00029848
aF0.00036138000000000001
aF0.00043266799999999998
aF0.00051218100000000001
aF0.00060253599999999998
aF0.00068503399999999995
aF0.00074358200000000001
aF0.00078442900000000001
aF0.00082092999999999999
aF0.00085824299999999996
aF0.00089733200000000003
aF0.00093549099999999999
aF0.00097364999999999995
aF0.0010118099999999999
aF0.0010499699999999999
aF0.0010871500000000001
aF0.0011233700000000001
aF0.0011586700000000001
aF0.00119221
aF0.0012233400000000001
aF0.00125303
aF0.0012801399999999999
aF0.0013055600000000001
aF0.0013294400000000001
aF0.0013515300000000001
aF0.0013724099999999999
aF0.00139219
aF0.0014112899999999999
aF0.0014294399999999999
aF0.00144699
aF0.00146397
aF0.0014804200000000001
aF0.00149635
aF0.0015117900000000001
assS'5'
(dp78
g3
I5
sg4
(dp79
S'deltaT'
p80
I00
ssg8
(dp81
g80
(lp82
F1.42991e-05
aF1.70603e-05
aF2.04723e-05
aF2.4362099999999998e-05
aF2.9058399999999999e-05
aF3.4533100000000003e-05
aF4.11974e-05
aF4.9086299999999998e-05
aF5.6449200000000002e-05
aF6.2900599999999999e-05
aF7.1287300000000004e-05
aF7.9512799999999995e-05
aF9.0355399999999999e-05
aF8.2498399999999996e-05
aF5.8547300000000001e-05
aF4.0846899999999997e-05
aF3.6501500000000003e-05
aF3.7312699999999999e-05
aF3.9089499999999999e-05
aF3.8158799999999998e-05
aF3.8158799999999998e-05
aF3.8158799999999998e-05
aF3.8158799999999998e-05
aF3.71803e-05
aF3.6226999999999997e-05
aF3.52981e-05
aF3.3533199999999999e-05
aF3.1137999999999999e-05
aF2.9689700000000001e-05
aF2.7107999999999999e-05
aF2.54137e-05
aF2.3888900000000001e-05
aF2.2086000000000002e-05
aF2.0881299999999999e-05
aF1.9782299999999999e-05
aF1.91001e-05
aF1.81451e-05
aF1.75502e-05
aF1.6983999999999999e-05
aF1.6444899999999999e-05
aF1.5931e-05
aF1.54408e-05
aF0
assg12
(lp83
sg14
(lp84
F1.1961699999999999e-05
aF2.6260800000000001e-05
aF4.3321100000000001e-05
aF6.3793400000000005e-05
aF8.8155500000000007e-05
aF0.00011721400000000001
aF0.00015174700000000001
aF0.00019294399999999999
aF0.000242031
aF0.00029848
aF0.00036138000000000001
aF0.00043266799999999998
aF0.00051218100000000001
aF0.00060253599999999998
aF0.00068503399999999995
aF0.00074358200000000001
aF0.00078442900000000001
aF0.00082092999999999999
aF0.00085824299999999996
aF0.00089733200000000003
aF0.00093549099999999999
aF0.00097364999999999995
aF0.0010118099999999999
aF0.0010499699999999999
aF0.0010871500000000001
aF0.0011233700000000001
aF0.0011586700000000001
aF0.00119221
aF0.0012233400000000001
aF0.00125303
aF0.0012801399999999999
aF0.0013055600000000001
aF0.0013294400000000001
aF0.0013515300000000001
aF0.0013724099999999999
aF0.00139219
aF0.0014112899999999999
aF0.0014294399999999999
aF0.00144699
aF0.00146397
aF0.0014804200000000001
aF0.00149635
aF0.0015117900000000001
assS'4'
(dp85
g3
I4
sg4
(dp86
S'cpu'
p87
I00
sS'clock'
p88
I00
ssg8
(dp89
g87
(lp90
F0.17000000000000001
aF0.0099999999999999811
aF0.040000000000000008
aF0.040000000000000008
aF0.029999999999999971
aF0.040000000000000036
aF0.029999999999999971
aF0.040000000000000036
aF0.029999999999999971
aF0.03999999999999998
aF0.040000000000000036
aF0.040000000000000036
aF0.029999999999999916
aF0.050000000000000044
aF0.030000000000000027
aF0.039999999999999925
aF0.040000000000000036
aF0.030000000000000027
aF0.030000000000000027
aF0.049999999999999933
aF0.030000000000000027
aF0.030000000000000027
aF0.029999999999999916
aF0.040000000000000036
aF0.030000000000000027
aF0.030000000000000027
aF0.030000000000000027
aF0.040000000000000036
aF0.029999999999999805
aF0.050000000000000044
aF0.030000000000000027
aF0.030000000000000027
aF0.050000000000000044
aF0.030000000000000027
aF0.030000000000000027
aF0.019999999999999796
aF0.040000000000000036
aF0.040000000000000036
aF0.030000000000000027
aF0.030000000000000027
aF0.050000000000000044
aF0.030000000000000027
aF0
asg88
(lp91
F0
aF0
aF0
aF0
aF0
aF0
aF0
aF0
aF0
aF0
aF0
aF0
aF0
aF0
aF1
aF0
aF0
aF0
aF0
aF0
aF0
aF0
aF0
aF0
aF0
aF0
aF0
aF0
aF0
aF0
aF0
aF0
aF0
aF0
aF0
aF0
aF0
aF0
aF0
aF0
aF0
aF0
aF0
assg12
(lp92
sg14
(lp93
F1.1961699999999999e-05
aF2.6260800000000001e-05
aF4.3321100000000001e-05
aF6.3793400000000005e-05
aF8.8155500000000007e-05
aF0.00011721400000000001
aF0.00015174700000000001
aF0.00019294399999999999
aF0.000242031
aF0.00029848
aF0.00036138000000000001
aF0.00043266799999999998
aF0.00051218100000000001
aF0.00060253599999999998
aF0.00068503399999999995
aF0.00074358200000000001
aF0.00078442900000000001
aF0.00082092999999999999
aF0.00085824299999999996
aF0.00089733200000000003
aF0.00093549099999999999
aF0.00097364999999999995
aF0.0010118099999999999
aF0.0010499699999999999
aF0.0010871500000000001
aF0.0011233700000000001
aF0.0011586700000000001
aF0.00119221
aF0.0012233400000000001
aF0.00125303
aF0.0012801399999999999
aF0.0013055600000000001
aF0.0013294400000000001
aF0.0013515300000000001
aF0.0013724099999999999
aF0.00139219
aF0.0014112899999999999
aF0.0014294399999999999
aF0.00144699
aF0.00146397
aF0.0014804200000000001
aF0.00149635
aF0.0015117900000000001
assS'7'
(dp94
g3
I7
sg4
(dp95
S'max'
p96
I00
sS'mean'
p97
I00
ssg8
(dp98
g96
(lp99
F0.00025106400000000001
aF0.016609499999999999
aF0.036501400000000003
aF0.056722599999999998
aF0.078625799999999996
aF0.110024
aF0.154784
aF0.206514
aF0.25260100000000002
aF0.28129999999999999
aF0.28850500000000001
aF0.27655000000000002
aF0.28145399999999998
aF0.41946800000000001
aF0.55714600000000003
aF0.57231900000000002
aF0.44286599999999998
aF0.38426100000000002
aF0.37974599999999997
aF0.40754899999999999
aF0.39489099999999999
aF0.39288600000000001
aF0.39780100000000002
aF0.40206900000000001
aF0.40192499999999998
aF0.40377099999999999
aF0.419076
aF0.42300900000000002
aF0.41920299999999999
aF0.43269099999999999
aF0.42401
aF0.42484300000000003
aF0.42619699999999999
aF0.41561900000000002
aF0.41495599999999999
aF0.411491
aF0.41641699999999998
aF0.40867100000000001
aF0.409964
aF0.41020600000000002
aF0.41084900000000002
aF0.41168300000000002
aF0
asg97
(lp100
F4.4759900000000002e-06
aF0.0093113799999999993
aF0.0197378
aF0.028128899999999998
aF0.031848300000000003
aF0.0296878
aF0.020674100000000001
aF0.0147885
aF0.029582199999999999
aF0.042243900000000001
aF0.044297700000000002
aF0.047903599999999998
aF0.042631700000000002
aF0.041692600000000003
aF0.039536000000000002
aF0.032903000000000002
aF0.068089399999999994
aF0.0598483
aF0.0523058
aF0.045501399999999997
aF0.043523899999999997
aF0.040276199999999998
aF0.038730300000000002
aF0.039105399999999998
aF0.0417106
aF0.043935399999999999
aF0.045848600000000003
aF0.048398700000000003
aF0.050422300000000003
aF0.050344399999999997
aF0.050858899999999999
aF0.049924799999999998
aF0.048767199999999997
aF0.047627099999999999
aF0.046176099999999998
aF0.044792400000000003
aF0.043575700000000002
aF0.042484599999999997
aF0.041557299999999998
aF0.040753600000000001
aF0.040064900000000001
aF0.039461900000000001
aF0
assg12
(lp101
sg14
(lp102
F1.1961699999999999e-05
aF2.6260800000000001e-05
aF4.3321100000000001e-05
aF6.3793400000000005e-05
aF8.8155500000000007e-05
aF0.00011721400000000001
aF0.00015174700000000001
aF0.00019294399999999999
aF0.000242031
aF0.00029848
aF0.00036138000000000001
aF0.00043266799999999998
aF0.00051218100000000001
aF0.00060253599999999998
aF0.00068503399999999995
aF0.00074358200000000001
aF0.00078442900000000001
aF0.00082092999999999999
aF0.00085824299999999996
aF0.00089733200000000003
aF0.00093549099999999999
aF0.00097364999999999995
aF0.0010118099999999999
aF0.0010499699999999999
aF0.0010871500000000001
aF0.0011233700000000001
aF0.0011586700000000001
aF0.00119221
aF0.0012233400000000001
aF0.00125303
aF0.0012801399999999999
aF0.0013055600000000001
aF0.0013294400000000001
aF0.0013515300000000001
aF0.0013724099999999999
aF0.00139219
aF0.0014112899999999999
aF0.0014294399999999999
aF0.00144699
aF0.00146397
aF0.0014804200000000001
aF0.00149635
aF0.0015117900000000001
assS'6'
(dp103
g3
I6
sg4
(dp104
sg8
(dp105
sg12
(lp106
sg14
(lp107
ss.(dp108
S'1'
(dp109
g3
I1
sS'data'
p110
I2
sS'spec'
p111
(dp112
S'logscale'
p113
I01
sS'name'
p114
S'Custom01_linear'
p115
sS'theTitle'
p116
S'Residuals'
p117
sS'raiseit'
p118
I00
sS'expr'
p119
S''
sS'forbidden'
p120
(lp121
S'final'
p122
aS'iterations'
p123
asS'enabled'
p124
I01
sS'gnuplotCommands'
p125
(lp126
sS'raisit'
p127
I00
sS'titles'
p128
(lp129
sS'alternateAxis'
p130
(lp131
sS'enhanced'
p132
I00
sS'xlabel'
p133
S'Time [s]'
p134
sS'with'
p135
S'lines'
p136
sS'type'
p137
S'regular'
p138
sS'accumulation'
p139
S'first'
p140
ssS'id'
p141
S'linear'
p142
ssS'3'
(dp143
g3
I3
sg110
I6
sg111
(dp144
g113
I00
sg114
S'Custom03_bounding'
p145
sg116
S'Bounded variables'
p146
sg118
I00
sg119
S''
sg120
(lp147
sg124
I01
sg125
(lp148
sg127
I00
sg128
(lp149
sg130
g131
sg132
I00
sg133
g134
sS'with'
p150
g136
sg137
g138
sg139
g140
ssg141
S'bounding'
p151
ssS'2'
(dp152
g3
I2
sg110
I1
sg111
(dp153
g113
I00
sg114
S'Custom02_continuity'
p154
sg116
S'Continuity'
p155
sg118
I00
sg119
S''
sg120
g147
sg124
I01
sg125
(lp156
sg127
I00
sg128
(lp157
sg130
(lp158
g7
asg132
I00
sg133
g134
sS'with'
p159
g136
sg137
g138
sg139
g140
ssg141
S'continuity'
p160
ssS'5'
(dp161
g3
I5
sg110
I7
sg111
(dp162
g113
I00
sg114
S'Custom05_courant'
p163
sg116
S'Courant'
p164
sg118
I00
sg119
S''
sg120
g147
sg124
I01
sg125
(lp165
sg127
I00
sg128
(lp166
sg130
g131
sg132
I00
sg133
g134
sS'with'
p167
g136
sg137
g138
sg139
g140
ssg141
S'courant'
p168
ssS'4'
(dp169
g3
I4
sg110
I3
sg111
(dp170
g113
I00
sg114
S'Custom04_iterations'
p171
sg116
S'Iterations'
p172
sg118
I00
sg119
S''
sg120
g147
sg124
I01
sg125
(lp173
sg127
I00
sg128
(lp174
sg130
g131
sg132
I00
sg133
g134
sS'with'
p175
S'steps'
p176
sg137
g138
sg139
g140
ssg141
g123
ssS'7'
(dp177
g3
I7
sg110
I4
sg111
(dp178
g113
I00
sg114
S'Custom07_execution'
p179
sg116
S'Execution Time'
p180
sg118
I00
sg119
S''
sg120
g147
sg124
I01
sg125
(lp181
sg127
I00
sg128
(lp182
sg130
g131
sg132
I00
sg133
g134
sS'with'
p183
g176
sg137
g138
sg139
g140
ssg141
S'execution'
p184
ssS'6'
(dp185
g3
I6
sg110
I5
sg111
(dp186
g113
I01
sg114
S'Custom06_timestep'
p187
sg116
S'DeltaT'
p188
sg118
I00
sg119
S''
sg120
g147
sg124
I01
sg125
(lp189
sg127
I00
sg128
(lp190
sg130
g131
sg132
I00
sg133
g134
sS'with'
p191
g136
sg137
g138
sg139
g140
ssg141
S'timestep'
p192
ss.