(dp1
S'solverFull'
p2
S'reactingFlow'
p3
sS'remark'
p4
S'No remark given'
p5
sS'casename'
p6
S'case_50'
p7
sS'solver'
p8
g3
sS'commandLine'
p9
S'reactingFlow C:Oregon_StateSpring_2019Soft_dev_engStoveOptfoamfilescounterFlowFlame2Dcase_150 counterFlowFlame2D'
p10
sS'hostname'
p11
S'DESKTOP-FJSH8MB'
p12
sS'lines'
p13
I0
sS'casefullname'
p14
S'/mnt/c/Oregon_State/Spring_2019/Soft_dev_eng/StoveOpt/foamfiles/counterFlowFlame2D/case_50'
p15
sS'starttime'
p16
S'Thu May 16 14:58:31 2019'
p17
sS'logfile'
p18
S'./PyFoamRunner.reactingFlow.logfile'
p19
s.