(dp1
S'solverFull'
p2
S'options'
p3
sS'remark'
p4
S'No remark given'
p5
sS'casename'
p6
S'case_100'
p7
sS'solver'
p8
g3
sS'commandLine'
p9
g3
sS'hostname'
p10
S'DESKTOP-FJSH8MB'
p11
sS'lines'
p12
I0
sS'casefullname'
p13
S'/mnt/c/Oregon_State/Spring_2019/Soft_dev_eng/StoveOpt/foamfiles/counterFlowFlame2D/case_100'
p14
sS'starttime'
p15
S'Thu May 16 15:03:39 2019'
p16
sS'logfile'
p17
S'./PyFoamRunner.options.logfile'
p18
s.